target datalayout = "e-m:e-p270:32:32-p271:32:32-p272:64:64-i64:64-i128:128-f80:128-n8:16:32:64-S128"
target triple = "x86_64-pc-linux-gnu"

%struct.HTable = type { i32, ptr }
%struct.Module_ = type { ptr, ptr, ptr, i16, i32, ptr, %struct.HTable, ptr, ptr, ptr, ptr, ptr, ptr, ptr, ptr, ptr }
%struct.Path_ = type { %union.SourceSpan, ptr, i32 }
%union.SourceSpan = type { i64 }
%struct.Vmem = type { ptr, i64, i64 }
%struct.TypeInfo_ = type { i16, ptr, %union.SourceSpan, %union.anon }
%union.anon = type { %struct.anon.0 }
%struct.anon.0 = type { ptr, ptr }
%struct.VHeader_ = type { i32, i32, [0 x i8] }
%struct.Decl_ = type { ptr, ptr, %union.SourceSpan, i64, %union.anon.3, i32, %union.anon.4, i64, ptr, ptr, ptr, %union.anon.5 }
%union.anon.3 = type { ptr }
%union.anon.4 = type { i16 }
%union.anon.5 = type { %struct.FuncDecl }
%struct.FuncDecl = type { i32, [4 x i8], %struct.Signature_, i32, i32, %union.anon.12 }
%struct.Signature_ = type <{ %struct.CalleeAttributes, i16, i8, i32, i32, [4 x i8], ptr }>
%struct.CalleeAttributes = type { i8 }
%union.anon.12 = type { %struct.anon.13 }
%struct.anon.13 = type { i16, %union.anon.14 }
%union.anon.14 = type { ptr }
%struct.VarDecl_ = type { i32, i32, %union.anon.18, %union.anon.19 }
%union.anon.18 = type { ptr }
%union.anon.19 = type { %struct.anon.20 }
%struct.anon.20 = type { ptr, %union.SourceSpan }

@.str.22 = private unnamed_addr constant [3 x i8] c",\0A\00", align 1
@.str.29 = private unnamed_addr constant [15 x i8] c"\09\09\22%s::%s\22: {\0A\00", align 1
@.str.34 = private unnamed_addr constant [5 x i8] c"\0A\09\09}\00", align 1
@.str.58 = private unnamed_addr constant [14 x i8] c"\09\09\09\22rtype\22: \22\00", align 1
@.str.59 = private unnamed_addr constant [4 x i8] c"\22,\0A\00", align 1
@.str.60 = private unnamed_addr constant [16 x i8] c"\09\09\09\22params\22: [\0A\00", align 1
@.str.61 = private unnamed_addr constant [7 x i8] c"\09\09\09\09{\0A\00", align 1
@.str.62 = private unnamed_addr constant [20 x i8] c"\09\09\09\09\09\22name\22: \22%s\22,\0A\00", align 1
@.str.63 = private unnamed_addr constant [1 x i8] zeroinitializer, align 1
@.str.64 = private unnamed_addr constant [15 x i8] c"\09\09\09\09\09\22type\22: \22\00", align 1
@.str.65 = private unnamed_addr constant [3 x i8] c"\22\0A\00", align 1
@.str.66 = private unnamed_addr constant [6 x i8] c"\09\09\09\09}\00", align 1
@.str.67 = private unnamed_addr constant [7 x i8] c"\0A\09\09\09]\0A\00", align 1
@type_info_arena = external global %struct.Vmem, align 8

; Function Attrs: nounwind uwtable
define internal ptr @type_infoptr(i32 noundef %0) #0 {
  %2 = alloca i32, align 4
  store i32 %0, ptr %2, align 4
  %3 = load ptr, ptr @type_info_arena, align 8
  %4 = load i32, ptr %2, align 4
  %5 = zext i32 %4 to i64
  %6 = getelementptr inbounds %struct.TypeInfo_, ptr %3, i64 %5
  ret ptr %6
}

; Function Attrs: nounwind uwtable
define internal void @emit_func_data(ptr noundef %0, ptr noundef %1, ptr noundef %2) #0 {
  %4 = alloca i32, align 4
  %5 = alloca ptr, align 8
  %6 = alloca ptr, align 8
  %7 = alloca ptr, align 8
  %8 = alloca ptr, align 8
  %9 = alloca ptr, align 8
  %10 = alloca ptr, align 8
  %11 = alloca i32, align 4
  %12 = alloca i32, align 4
  %13 = alloca ptr, align 8
  store ptr %0, ptr %7, align 8
  store ptr %1, ptr %8, align 8
  store ptr %2, ptr %9, align 8
  %14 = load ptr, ptr %7, align 8
  %15 = load ptr, ptr %8, align 8
  %16 = getelementptr inbounds %struct.Module_, ptr %15, i32 0, i32 0
  %17 = load ptr, ptr %16, align 8
  %18 = getelementptr inbounds %struct.Path_, ptr %17, i32 0, i32 1
  %19 = load ptr, ptr %18, align 8
  %20 = load ptr, ptr %9, align 8
  %21 = getelementptr inbounds %struct.Decl_, ptr %20, i32 0, i32 0
  %22 = load ptr, ptr %21, align 8
  %23 = call i32 (ptr, ptr, ...) @fprintf(ptr noundef %14, ptr noundef @.str.29, ptr noundef %19, ptr noundef %22) #5
  %24 = load ptr, ptr %7, align 8
  %25 = call i32 (ptr, ptr, ...) @fprintf(ptr noundef %24, ptr noundef @.str.58) #5
  %26 = load ptr, ptr %7, align 8
  %27 = load ptr, ptr %9, align 8
  %28 = getelementptr inbounds %struct.Decl_, ptr %27, i32 0, i32 11
  %29 = getelementptr inbounds %struct.FuncDecl, ptr %28, i32 0, i32 2
  %30 = getelementptr inbounds %struct.Signature_, ptr %29, i32 0, i32 4
  %31 = load i32, ptr %30, align 8
  %32 = call ptr @type_infoptr(i32 noundef %31)
  call void @print_type(ptr noundef %26, ptr noundef %32)
  %33 = load ptr, ptr %7, align 8
  %34 = call i32 (ptr, ptr, ...) @fprintf(ptr noundef %33, ptr noundef @.str.59) #5
  %35 = load ptr, ptr %7, align 8
  %36 = call i32 @fputs(ptr noundef @.str.60, ptr noundef %35)
  %37 = load ptr, ptr %9, align 8
  %38 = getelementptr inbounds %struct.Decl_, ptr %37, i32 0, i32 11
  %39 = getelementptr inbounds %struct.FuncDecl, ptr %38, i32 0, i32 2
  %40 = getelementptr inbounds %struct.Signature_, ptr %39, i32 0, i32 6
  %41 = load ptr, ptr %40, align 8
  store ptr %41, ptr %10, align 8
  %42 = load ptr, ptr %10, align 8
  store ptr %42, ptr %5, align 8
  %43 = load ptr, ptr %5, align 8
  %44 = icmp ne ptr %43, null
  br i1 %44, label %46, label %45

45:                                               ; preds = %3
  store i32 0, ptr %4, align 4
  br label %51

46:                                               ; preds = %3
  %47 = load ptr, ptr %5, align 8
  store ptr %47, ptr %6, align 8
  %48 = load ptr, ptr %6, align 8
  %49 = getelementptr inbounds %struct.VHeader_, ptr %48, i64 -1
  %50 = load i32, ptr %49, align 4
  store i32 %50, ptr %4, align 4
  br label %51

51:                                               ; preds = %46, %45
  %52 = load i32, ptr %4, align 4
  store i32 %52, ptr %11, align 4
  store i32 0, ptr %12, align 4
  br label %53

53:                                               ; preds = %110, %51
  %54 = load i32, ptr %12, align 4
  %55 = load i32, ptr %11, align 4
  %56 = icmp ult i32 %54, %55
  br i1 %56, label %57, label %113

57:                                               ; preds = %53
  %58 = load ptr, ptr %10, align 8
  %59 = load i32, ptr %12, align 4
  %60 = zext i32 %59 to i64
  %61 = getelementptr inbounds ptr, ptr %58, i64 %60
  %62 = load ptr, ptr %61, align 8
  store ptr %62, ptr %13, align 8
  %63 = load i32, ptr %12, align 4
  %64 = icmp ne i32 %63, 0
  br i1 %64, label %65, label %68

65:                                               ; preds = %57
  %66 = load ptr, ptr %7, align 8
  %67 = call i32 @fputs(ptr noundef @.str.22, ptr noundef %66)
  br label %68

68:                                               ; preds = %65, %57
  %69 = load ptr, ptr %13, align 8
  %70 = icmp ne ptr %69, null
  br i1 %70, label %72, label %71

71:                                               ; preds = %68
  br label %110

72:                                               ; preds = %68
  %73 = load ptr, ptr %7, align 8
  %74 = call i32 @fputs(ptr noundef @.str.61, ptr noundef %73)
  %75 = load ptr, ptr %7, align 8
  %76 = load ptr, ptr %13, align 8
  %77 = getelementptr inbounds %struct.Decl_, ptr %76, i32 0, i32 0
  %78 = load ptr, ptr %77, align 8
  %79 = icmp ne ptr %78, null
  br i1 %79, label %80, label %84

80:                                               ; preds = %72
  %81 = load ptr, ptr %13, align 8
  %82 = getelementptr inbounds %struct.Decl_, ptr %81, i32 0, i32 0
  %83 = load ptr, ptr %82, align 8
  br label %85

84:                                               ; preds = %72
  br label %85

85:                                               ; preds = %84, %80
  %86 = phi ptr [ %83, %80 ], [ @.str.63, %84 ]
  %87 = call i32 (ptr, ptr, ...) @fprintf(ptr noundef %75, ptr noundef @.str.62, ptr noundef %86) #5
  %88 = load ptr, ptr %7, align 8
  %89 = call i32 (ptr, ptr, ...) @fprintf(ptr noundef %88, ptr noundef @.str.64) #5
  %90 = load ptr, ptr %13, align 8
  %91 = getelementptr inbounds %struct.Decl_, ptr %90, i32 0, i32 11
  %92 = getelementptr inbounds %struct.VarDecl_, ptr %91, i32 0, i32 1
  %93 = load i32, ptr %92, align 4
  %94 = icmp ne i32 %93, 0
  br i1 %94, label %95, label %102

95:                                               ; preds = %85
  %96 = load ptr, ptr %7, align 8
  %97 = load ptr, ptr %13, align 8
  %98 = getelementptr inbounds %struct.Decl_, ptr %97, i32 0, i32 11
  %99 = getelementptr inbounds %struct.VarDecl_, ptr %98, i32 0, i32 1
  %100 = load i32, ptr %99, align 4
  %101 = call ptr @type_infoptr(i32 noundef %100)
  call void @print_type(ptr noundef %96, ptr noundef %101)
  br label %105

102:                                              ; preds = %85
  %103 = load ptr, ptr %7, align 8
  %104 = call i32 @fputs(ptr noundef @.str.63, ptr noundef %103)
  br label %105

105:                                              ; preds = %102, %95
  %106 = load ptr, ptr %7, align 8
  %107 = call i32 @fputs(ptr noundef @.str.65, ptr noundef %106)
  %108 = load ptr, ptr %7, align 8
  %109 = call i32 @fputs(ptr noundef @.str.66, ptr noundef %108)
  br label %110

110:                                              ; preds = %105, %71
  %111 = load i32, ptr %12, align 4
  %112 = add i32 %111, 1
  store i32 %112, ptr %12, align 4
  br label %53, !llvm.loop !23

113:                                              ; preds = %53
  br label %114

114:                                              ; preds = %113
  br label %115

115:                                              ; preds = %114
  %116 = load ptr, ptr %7, align 8
  %117 = call i32 @fputs(ptr noundef @.str.67, ptr noundef %116)
  %118 = load ptr, ptr %7, align 8
  %119 = call i32 @fputs(ptr noundef @.str.34, ptr noundef %118)
  ret void
}