; Function Attrs: nounwind uwtable
define internal fastcc void @emit_func_data(ptr noundef %0, ptr %.0.val.8.val, ptr nocapture noundef readonly %1) unnamed_addr #0 {
  %3 = load ptr, ptr %1, align 8
  %4 = tail call i32 (ptr, ptr, ...) @fprintf(ptr noundef %0, ptr noundef nonnull @.str.29, ptr noundef %.0.val.8.val, ptr noundef %3) #6
  %5 = tail call i64 @fwrite(ptr nonnull @.str.58, i64 13, i64 1, ptr %0)
  %6 = getelementptr inbounds i8, ptr %1, i64 96
  %7 = load i32, ptr %6, align 8
  %8 = load ptr, ptr @type_info_arena, align 8
  %9 = zext i32 %7 to i64
  %10 = getelementptr inbounds %struct.TypeInfo_, ptr %8, i64 %9
  tail call void @print_type(ptr noundef %0, ptr noundef %10)
  %11 = tail call i64 @fwrite(ptr nonnull @.str.59, i64 3, i64 1, ptr %0)
  %12 = tail call i64 @fwrite(ptr nonnull @.str.60, i64 15, i64 1, ptr %0)
  %13 = getelementptr inbounds i8, ptr %1, i64 104
  %14 = load ptr, ptr %13, align 8
  %.not = icmp eq ptr %14, null
  br i1 %.not, label %._crit_edge, label %15

15:                                               ; preds = %2
  %16 = getelementptr inbounds i8, ptr %14, i64 -8
  %17 = load i32, ptr %16, align 4
  %.not2 = icmp eq i32 %17, 0
  br i1 %.not2, label %._crit_edge, label %.lr.ph.preheader

.lr.ph.preheader:                                 ; preds = %15
  %wide.trip.count = zext i32 %17 to i64
  br label %.lr.ph

.lr.ph:                                           ; preds = %.lr.ph.preheader, %37
  %indvars.iv = phi i64 [ 0, %.lr.ph.preheader ], [ %indvars.iv.next, %37 ]
  %18 = getelementptr inbounds ptr, ptr %14, i64 %indvars.iv
  %19 = load ptr, ptr %18, align 8
  %.not39 = icmp eq i64 %indvars.iv, 0
  br i1 %.not39, label %22, label %20

20:                                               ; preds = %.lr.ph
  %21 = tail call i64 @fwrite(ptr nonnull @.str.22, i64 2, i64 1, ptr %0)
  br label %22

22:                                               ; preds = %20, %.lr.ph
  %.not40 = icmp eq ptr %19, null
  br i1 %.not40, label %37, label %23

23:                                               ; preds = %22
  %24 = tail call i64 @fwrite(ptr nonnull @.str.61, i64 6, i64 1, ptr %0)
  %25 = load ptr, ptr %19, align 8
  %.not41 = icmp eq ptr %25, null
  %spec.select = select i1 %.not41, ptr @.str.63, ptr %25
  %26 = tail call i32 (ptr, ptr, ...) @fprintf(ptr noundef %0, ptr noundef nonnull @.str.62, ptr noundef nonnull %spec.select) #6
  %27 = tail call i64 @fwrite(ptr nonnull @.str.64, i64 14, i64 1, ptr %0)
  %28 = getelementptr inbounds i8, ptr %19, i64 84
  %29 = load i32, ptr %28, align 4
  %.not42 = icmp eq i32 %29, 0
  br i1 %.not42, label %34, label %30

30:                                               ; preds = %23
  %31 = load ptr, ptr @type_info_arena, align 8
  %32 = zext i32 %29 to i64
  %33 = getelementptr inbounds %struct.TypeInfo_, ptr %31, i64 %32
  tail call void @print_type(ptr noundef %0, ptr noundef nonnull %33)
  br label %34

34:                                               ; preds = %23, %30
  %35 = tail call i64 @fwrite(ptr nonnull @.str.65, i64 2, i64 1, ptr %0)
  %36 = tail call i64 @fwrite(ptr nonnull @.str.66, i64 5, i64 1, ptr %0)
  br label %37

37:                                               ; preds = %22, %34
  %indvars.iv.next = add nuw nsw i64 %indvars.iv, 1
  %exitcond.not = icmp eq i64 %indvars.iv.next, %wide.trip.count
  br i1 %exitcond.not, label %._crit_edge, label %.lr.ph, !llvm.loop !23

._crit_edge:                                      ; preds = %37, %2, %15
  %38 = tail call i64 @fwrite(ptr nonnull @.str.67, i64 6, i64 1, ptr %0)
  %39 = tail call i64 @fwrite(ptr nonnull @.str.34, i64 4, i64 1, ptr %0)
  ret void
}